target datalayout = "e-m:e-p270:32:32-p271:32:32-p272:64:64-i64:64-i128:128-f80:128-n8:16:32:64-S128"
target triple = "x86_64-pc-linux-gnu"

; Function Attrs: nounwind uwtable
define internal i32 @abs_diff(i32 noundef %0, i32 noundef %1) #0 {
  %3 = alloca i32, align 4
  %4 = alloca i32, align 4
  store i32 %0, ptr %3, align 4
  store i32 %1, ptr %4, align 4
  %5 = load i32, ptr %3, align 4
  %6 = load i32, ptr %4, align 4
  %7 = icmp sgt i32 %5, %6
  br i1 %7, label %8, label %12

8:                                                ; preds = %2
  %9 = load i32, ptr %3, align 4
  %10 = load i32, ptr %4, align 4
  %11 = sub nsw i32 %9, %10
  br label %16

12:                                               ; preds = %2
  %13 = load i32, ptr %4, align 4
  %14 = load i32, ptr %3, align 4
  %15 = sub nsw i32 %13, %14
  br label %16

16:                                               ; preds = %12, %8
  %17 = phi i32 [ %11, %8 ], [ %15, %12 ]
  ret i32 %17
}

; Function Attrs: nounwind uwtable
define internal zeroext i16 @paeth_predictor_single(i16 noundef zeroext %0, i16 noundef zeroext %1, i16 noundef zeroext %2) #0 {
  %4 = alloca i16, align 2
  %5 = alloca i16, align 2
  %6 = alloca i16, align 2
  %7 = alloca i32, align 4
  %8 = alloca i32, align 4
  %9 = alloca i32, align 4
  %10 = alloca i32, align 4
  store i16 %0, ptr %4, align 2
  store i16 %1, ptr %5, align 2
  store i16 %2, ptr %6, align 2
  %11 = load i16, ptr %5, align 2
  %12 = zext i16 %11 to i32
  %13 = load i16, ptr %4, align 2
  %14 = zext i16 %13 to i32
  %15 = add nsw i32 %12, %14
  %16 = load i16, ptr %6, align 2
  %17 = zext i16 %16 to i32
  %18 = sub nsw i32 %15, %17
  store i32 %18, ptr %7, align 4
  %19 = load i32, ptr %7, align 4
  %20 = load i16, ptr %4, align 2
  %21 = zext i16 %20 to i32
  %22 = call i32 @abs_diff(i32 noundef %19, i32 noundef %21)
  store i32 %22, ptr %8, align 4
  %23 = load i32, ptr %7, align 4
  %24 = load i16, ptr %5, align 2
  %25 = zext i16 %24 to i32
  %26 = call i32 @abs_diff(i32 noundef %23, i32 noundef %25)
  store i32 %26, ptr %9, align 4
  %27 = load i32, ptr %7, align 4
  %28 = load i16, ptr %6, align 2
  %29 = zext i16 %28 to i32
  %30 = call i32 @abs_diff(i32 noundef %27, i32 noundef %29)
  store i32 %30, ptr %10, align 4
  %31 = load i32, ptr %8, align 4
  %32 = load i32, ptr %9, align 4
  %33 = icmp sle i32 %31, %32
  br i1 %33, label %34, label %41

34:                                               ; preds = %3
  %35 = load i32, ptr %8, align 4
  %36 = load i32, ptr %10, align 4
  %37 = icmp sle i32 %35, %36
  br i1 %37, label %38, label %41

38:                                               ; preds = %34
  %39 = load i16, ptr %4, align 2
  %40 = zext i16 %39 to i32
  br label %53

41:                                               ; preds = %34, %3
  %42 = load i32, ptr %9, align 4
  %43 = load i32, ptr %10, align 4
  %44 = icmp sle i32 %42, %43
  br i1 %44, label %45, label %48

45:                                               ; preds = %41
  %46 = load i16, ptr %5, align 2
  %47 = zext i16 %46 to i32
  br label %51

48:                                               ; preds = %41
  %49 = load i16, ptr %6, align 2
  %50 = zext i16 %49 to i32
  br label %51

51:                                               ; preds = %48, %45
  %52 = phi i32 [ %47, %45 ], [ %50, %48 ]
  br label %53

53:                                               ; preds = %51, %38
  %54 = phi i32 [ %40, %38 ], [ %52, %51 ]
  %55 = trunc i32 %54 to i16
  ret i16 %55
}

; Function Attrs: nounwind uwtable
define internal void @highbd_paeth_predictor(ptr noundef %0, i64 noundef %1, i32 noundef %2, i32 noundef %3, ptr noundef %4, ptr noundef %5, i32 noundef %6) #0 {
  %8 = alloca ptr, align 8
  %9 = alloca i64, align 8
  %10 = alloca i32, align 4
  %11 = alloca i32, align 4
  %12 = alloca ptr, align 8
  %13 = alloca ptr, align 8
  %14 = alloca i32, align 4
  %15 = alloca i32, align 4
  %16 = alloca i32, align 4
  %17 = alloca i16, align 2
  store ptr %0, ptr %8, align 8
  store i64 %1, ptr %9, align 8
  store i32 %2, ptr %10, align 4
  store i32 %3, ptr %11, align 4
  store ptr %4, ptr %12, align 8
  store ptr %5, ptr %13, align 8
  store i32 %6, ptr %14, align 4
  %18 = load ptr, ptr %12, align 8
  %19 = getelementptr inbounds i16, ptr %18, i64 -1
  %20 = load i16, ptr %19, align 2
  store i16 %20, ptr %17, align 2
  store i32 0, ptr %15, align 4
  br label %21

21:                                               ; preds = %54, %7
  %22 = load i32, ptr %15, align 4
  %23 = load i32, ptr %11, align 4
  %24 = icmp slt i32 %22, %23
  br i1 %24, label %25, label %57

25:                                               ; preds = %21
  store i32 0, ptr %16, align 4
  br label %26

26:                                               ; preds = %47, %25
  %27 = load i32, ptr %16, align 4
  %28 = load i32, ptr %10, align 4
  %29 = icmp slt i32 %27, %28
  br i1 %29, label %30, label %50

30:                                               ; preds = %26
  %31 = load ptr, ptr %13, align 8
  %32 = load i32, ptr %15, align 4
  %33 = sext i32 %32 to i64
  %34 = getelementptr inbounds i16, ptr %31, i64 %33
  %35 = load i16, ptr %34, align 2
  %36 = load ptr, ptr %12, align 8
  %37 = load i32, ptr %16, align 4
  %38 = sext i32 %37 to i64
  %39 = getelementptr inbounds i16, ptr %36, i64 %38
  %40 = load i16, ptr %39, align 2
  %41 = load i16, ptr %17, align 2
  %42 = call zeroext i16 @paeth_predictor_single(i16 noundef zeroext %35, i16 noundef zeroext %40, i16 noundef zeroext %41)
  %43 = load ptr, ptr %8, align 8
  %44 = load i32, ptr %16, align 4
  %45 = sext i32 %44 to i64
  %46 = getelementptr inbounds i16, ptr %43, i64 %45
  store i16 %42, ptr %46, align 2
  br label %47

47:                                               ; preds = %30
  %48 = load i32, ptr %16, align 4
  %49 = add nsw i32 %48, 1
  store i32 %49, ptr %16, align 4
  br label %26, !llvm.loop !35

50:                                               ; preds = %26
  %51 = load i64, ptr %9, align 8
  %52 = load ptr, ptr %8, align 8
  %53 = getelementptr inbounds i16, ptr %52, i64 %51
  store ptr %53, ptr %8, align 8
  br label %54

54:                                               ; preds = %50
  %55 = load i32, ptr %15, align 4
  %56 = add nsw i32 %55, 1
  store i32 %56, ptr %15, align 4
  br label %21, !llvm.loop !36

57:                                               ; preds = %21
  ret void
}

; Function Attrs: nounwind uwtable
define hidden void @aom_highbd_paeth_predictor_64x64_c(ptr noundef %0, i64 noundef %1, ptr noundef %2, ptr noundef %3, i32 noundef %4) #0 {
  %6 = alloca ptr, align 8
  %7 = alloca i64, align 8
  %8 = alloca ptr, align 8
  %9 = alloca ptr, align 8
  %10 = alloca i32, align 4
  store ptr %0, ptr %6, align 8
  store i64 %1, ptr %7, align 8
  store ptr %2, ptr %8, align 8
  store ptr %3, ptr %9, align 8
  store i32 %4, ptr %10, align 4
  %11 = load ptr, ptr %6, align 8
  %12 = load i64, ptr %7, align 8
  %13 = load ptr, ptr %8, align 8
  %14 = load ptr, ptr %9, align 8
  %15 = load i32, ptr %10, align 4
  call void @highbd_paeth_predictor(ptr noundef %11, i64 noundef %12, i32 noundef 64, i32 noundef 64, ptr noundef %13, ptr noundef %14, i32 noundef %15)
  ret void
}